#include <math.h>
#include <stdio.h>
#include <stdlib.h>
#include <string.h>

int main()
{
char s[50], w[50];

int i,n,j,flag= 0;
scanf("%s %s",w,s);


for (i=0; i+1<=(strlen(s)); i++,flag=0) {
	for(n=0,j=i;w[n]!='\0';n++,j++){
		if(s[j]!=w[n]){
		flag=1;
		break;
		}
	}
	if(flag) 
		continue;
	else{
		printf("%d",i);
		break;
		}
}
return 0;
}